; Function Attrs: nounwind uwtable
define range(i32 -28, 1) i32 @IDAGetDky(ptr noundef %0, double noundef %1, i32 noundef %2, ptr noundef %3) local_unnamed_addr #0 {
  %5 = alloca [6 x double], align 16
  %6 = alloca [6 x double], align 16
  call void @llvm.lifetime.start.p0(i64 48, ptr nonnull %5) #14
  call void @llvm.lifetime.start.p0(i64 48, ptr nonnull %6) #14
  %7 = icmp eq ptr %0, null
  br i1 %7, label %8, label %9

8:                                                ; preds = %4
  tail call void (ptr, i32, i32, ptr, ptr, ptr, ...) @IDAProcessError(ptr noundef null, i32 noundef -20, i32 noundef 3100, ptr noundef nonnull @__func__.IDAGetDky, ptr noundef nonnull @.str, ptr noundef nonnull @.str.3)
  br label %93

9:                                                ; preds = %4
  %10 = icmp eq ptr %3, null
  br i1 %10, label %11, label %12

11:                                               ; preds = %9
  tail call void (ptr, i32, i32, ptr, ptr, ptr, ...) @IDAProcessError(ptr noundef nonnull %0, i32 noundef -27, i32 noundef 3109, ptr noundef nonnull @__func__.IDAGetDky, ptr noundef nonnull @.str, ptr noundef nonnull @.str.49)
  br label %93

12:                                               ; preds = %9
  %13 = icmp slt i32 %2, 0
  br i1 %13, label %18, label %14

14:                                               ; preds = %12
  %15 = getelementptr inbounds nuw i8, ptr %0, i64 1212
  %16 = load i32, ptr %15, align 4, !tbaa !132
  %17 = icmp sgt i32 %2, %16
  br i1 %17, label %18, label %19

18:                                               ; preds = %14, %12
  tail call void (ptr, i32, i32, ptr, ptr, ptr, ...) @IDAProcessError(ptr noundef nonnull %0, i32 noundef -25, i32 noundef 3117, ptr noundef nonnull @__func__.IDAGetDky, ptr noundef nonnull @.str, ptr noundef nonnull @.str.50)
  br label %93

19:                                               ; preds = %14
  %20 = getelementptr inbounds nuw i8, ptr %0, i64 8
  %21 = load double, ptr %20, align 8, !tbaa !18
  %22 = fmul double %21, 1.000000e+02
  %23 = getelementptr inbounds nuw i8, ptr %0, i64 1272
  %24 = load double, ptr %23, align 8, !tbaa !125
  %25 = tail call double @llvm.fabs.f64(double %24)
  %26 = getelementptr inbounds nuw i8, ptr %0, i64 1248
  %27 = load double, ptr %26, align 8, !tbaa !216
  %28 = tail call double @llvm.fabs.f64(double %27)
  %29 = fadd double %25, %28
  %30 = fmul double %22, %29
  %31 = fcmp olt double %27, 0.000000e+00
  %32 = fneg double %30
  %.078 = select i1 %31, double %32, double %30
  %33 = getelementptr inbounds nuw i8, ptr %0, i64 1256
  %34 = load double, ptr %33, align 8, !tbaa !133
  %35 = fsub double %24, %34
  %36 = fsub double %35, %.078
  %37 = fsub double %1, %36
  %38 = fmul double %27, %37
  %39 = fcmp olt double %38, 0.000000e+00
  br i1 %39, label %40, label %.lr.ph95

40:                                               ; preds = %19
  tail call void (ptr, i32, i32, ptr, ptr, ptr, ...) @IDAProcessError(ptr noundef nonnull %0, i32 noundef -26, i32 noundef 3130, ptr noundef nonnull @__func__.IDAGetDky, ptr noundef nonnull @.str, ptr noundef nonnull @.str.51, double noundef %1, double noundef %35, double noundef %24)
  br label %93

.lr.ph95:                                         ; preds = %19
  call void @llvm.memset.p0.i64(ptr noundef nonnull align 16 dereferenceable(48) %5, i8 0, i64 48, i1 false), !tbaa !87
  call void @llvm.memset.p0.i64(ptr noundef nonnull align 16 dereferenceable(48) %6, i8 0, i64 48, i1 false), !tbaa !87
  %41 = fsub double %1, %24
  %42 = getelementptr inbounds nuw i8, ptr %0, i64 392
  %43 = sub nsw i32 %16, %2
  %44 = sext i32 %43 to i64
  %45 = add nuw i32 %2, 1
  %wide.trip.count = zext i32 %45 to i64
  %.not8387 = icmp slt i32 %43, 1
  %scevgep109 = getelementptr i8, ptr %5, i64 -8
  br label %46

.loopexit:                                        ; preds = %72, %.lr.ph92.preheader
  %indvars.iv.next102 = add nuw i64 %indvars.iv101, 1
  %exitcond.not = icmp eq i64 %indvar.next, %wide.trip.count
  br i1 %exitcond.not, label %._crit_edge, label %46

46:                                               ; preds = %.lr.ph95, %.loopexit
  %indvars.iv101 = phi i64 [ 1, %.lr.ph95 ], [ %indvars.iv.next102, %.loopexit ]
  %indvar = phi i64 [ 0, %.lr.ph95 ], [ %indvar.next, %.loopexit ]
  %sext111 = shl i64 %indvars.iv101, 32
  %47 = ashr exact i64 %sext111, 29
  %scevgep110 = getelementptr i8, ptr %scevgep109, i64 %47
  %indvars106 = trunc i64 %indvars.iv101 to i32
  %48 = shl nuw nsw i64 %indvar, 3
  %49 = add nuw nsw i64 %48, 8
  %scevgep = getelementptr i8, ptr %6, i64 %49
  %scevgep100 = getelementptr i8, ptr %5, i64 %49
  %50 = trunc i64 %indvar to i32
  %51 = add i32 %43, %50
  %smax = tail call i32 @llvm.smax.i32(i32 %51, i32 %indvars106)
  %52 = trunc i64 %indvar to i32
  %53 = xor i32 %52, -1
  %54 = add i32 %smax, %53
  %55 = zext i32 %54 to i64
  %56 = shl nuw nsw i64 %55, 3
  %57 = add nuw nsw i64 %56, 8
  %sext = shl i64 %indvars.iv101, 32
  %58 = ashr exact i64 %sext, 32
  %59 = icmp eq i64 %indvar, 0
  br i1 %59, label %60, label %61

60:                                               ; preds = %46
  store double 1.000000e+00, ptr %5, align 16, !tbaa !87
  br label %72

61:                                               ; preds = %46
  %62 = add nsw i64 %indvar, -1
  %63 = getelementptr inbounds [6 x double], ptr %5, i64 0, i64 %62
  %64 = load double, ptr %63, align 8, !tbaa !87
  %65 = trunc nuw nsw i64 %indvar to i32
  %66 = uitofp nneg i32 %65 to double
  %67 = fmul double %64, %66
  %68 = getelementptr inbounds [6 x double], ptr %42, i64 0, i64 %62
  %69 = load double, ptr %68, align 8, !tbaa !87
  %70 = fdiv double %67, %69
  %71 = getelementptr inbounds nuw [6 x double], ptr %5, i64 0, i64 %indvar
  store double %70, ptr %71, align 8, !tbaa !87
  br label %72

72:                                               ; preds = %61, %60
  %.076 = phi double [ 0.000000e+00, %60 ], [ %69, %61 ]
  %indvar.next = add nuw nsw i64 %indvar, 1
  %73 = add nsw i64 %indvar, %44
  br i1 %.not8387, label %.loopexit, label %.lr.ph

.lr.ph:                                           ; preds = %72
  %74 = trunc nuw nsw i64 %indvar to i32
  %75 = uitofp nneg i32 %74 to double
  %load_initial = load double, ptr %scevgep110, align 8
  br label %76

.lr.ph92.preheader:                               ; preds = %76
  call void @llvm.memcpy.p0.p0.i64(ptr noundef nonnull align 8 dereferenceable(1) %scevgep, ptr noundef nonnull align 8 dereferenceable(1) %scevgep100, i64 %57, i1 false), !tbaa !87
  br label %.loopexit

76:                                               ; preds = %.lr.ph, %76
  %store_forwarded = phi double [ %load_initial, %.lr.ph ], [ %85, %76 ]
  %indvars.iv97 = phi i64 [ %58, %.lr.ph ], [ %indvars.iv.next98, %76 ]
  %.17788 = phi double [ %.076, %.lr.ph ], [ %84, %76 ]
  %77 = add nsw i64 %indvars.iv97, -1
  %78 = getelementptr inbounds [6 x double], ptr %6, i64 0, i64 %77
  %79 = load double, ptr %78, align 8, !tbaa !87
  %80 = fadd double %41, %.17788
  %81 = fmul double %80, %store_forwarded
  %82 = tail call double @llvm.fmuladd.f64(double %75, double %79, double %81)
  %83 = getelementptr inbounds [6 x double], ptr %42, i64 0, i64 %77
  %84 = load double, ptr %83, align 8, !tbaa !87
  %85 = fdiv double %82, %84
  %86 = getelementptr inbounds nuw [6 x double], ptr %5, i64 0, i64 %indvars.iv97
  store double %85, ptr %86, align 8, !tbaa !87
  %indvars.iv.next98 = add nuw nsw i64 %indvars.iv97, 1
  %.not83.not = icmp slt i64 %indvars.iv97, %73
  br i1 %.not83.not, label %76, label %.lr.ph92.preheader

._crit_edge:                                      ; preds = %.loopexit
  %87 = add i32 %43, 1
  %88 = zext nneg i32 %2 to i64
  %89 = getelementptr inbounds nuw double, ptr %5, i64 %88
  %90 = getelementptr inbounds nuw i8, ptr %0, i64 344
  %91 = getelementptr inbounds nuw ptr, ptr %90, i64 %88
  %92 = call i32 @N_VLinearCombination(i32 noundef %87, ptr noundef nonnull %89, ptr noundef nonnull %91, ptr noundef nonnull %3) #14
  %.not82 = icmp eq i32 %92, 0
  %. = select i1 %.not82, i32 0, i32 -28
  br label %93

93:                                               ; preds = %._crit_edge, %40, %18, %11, %8
  %.0 = phi i32 [ -20, %8 ], [ -27, %11 ], [ -25, %18 ], [ -26, %40 ], [ %., %._crit_edge ]
  call void @llvm.lifetime.end.p0(i64 48, ptr nonnull %6) #14
  call void @llvm.lifetime.end.p0(i64 48, ptr nonnull %5) #14
  ret i32 %.0
}